target datalayout = "e-m:e-p270:32:32-p271:32:32-p272:64:64-i64:64-i128:128-f80:128-n8:16:32:64-S128"
target triple = "x86_64-pc-linux-gnu"

%struct.nghttp2_buf = type { ptr, ptr, ptr, ptr, ptr }
%struct.nghttp2_bufs = type { ptr, ptr, ptr, i64, i64, i64, i64, i64 }
%struct.nghttp2_buf_chain = type { ptr, %struct.nghttp2_buf }

; Function Attrs: nounwind uwtable
define internal i32 @bufs_ensure_addb(ptr noundef %0) #0 {
  %2 = alloca i32, align 4
  %3 = alloca ptr, align 8
  %4 = alloca i32, align 4
  %5 = alloca ptr, align 8
  %6 = alloca i32, align 4
  store ptr %0, ptr %3, align 8, !tbaa !4
  call void @llvm.lifetime.start.p0(i64 4, ptr %4) #3
  call void @llvm.lifetime.start.p0(i64 8, ptr %5) #3
  %7 = load ptr, ptr %3, align 8, !tbaa !4
  %8 = getelementptr inbounds nuw %struct.nghttp2_bufs, ptr %7, i32 0, i32 1
  %9 = load ptr, ptr %8, align 8, !tbaa !26
  %10 = getelementptr inbounds nuw %struct.nghttp2_buf_chain, ptr %9, i32 0, i32 1
  store ptr %10, ptr %5, align 8, !tbaa !4
  %11 = load ptr, ptr %5, align 8, !tbaa !4
  %12 = getelementptr inbounds nuw %struct.nghttp2_buf, ptr %11, i32 0, i32 1
  %13 = load ptr, ptr %12, align 8, !tbaa !11
  %14 = load ptr, ptr %5, align 8, !tbaa !4
  %15 = getelementptr inbounds nuw %struct.nghttp2_buf, ptr %14, i32 0, i32 3
  %16 = load ptr, ptr %15, align 8, !tbaa !13
  %17 = ptrtoint ptr %13 to i64
  %18 = ptrtoint ptr %16 to i64
  %19 = sub i64 %17, %18
  %20 = icmp ugt i64 %19, 0
  br i1 %20, label %21, label %22

21:                                               ; preds = %1
  store i32 0, ptr %2, align 4
  store i32 1, ptr %6, align 4
  br label %30

22:                                               ; preds = %1
  %23 = load ptr, ptr %3, align 8, !tbaa !4
  %24 = call i32 @bufs_alloc_chain(ptr noundef %23)
  store i32 %24, ptr %4, align 4, !tbaa !18
  %25 = load i32, ptr %4, align 4, !tbaa !18
  %26 = icmp ne i32 %25, 0
  br i1 %26, label %27, label %29

27:                                               ; preds = %22
  %28 = load i32, ptr %4, align 4, !tbaa !18
  store i32 %28, ptr %2, align 4
  store i32 1, ptr %6, align 4
  br label %30

29:                                               ; preds = %22
  store i32 0, ptr %2, align 4
  store i32 1, ptr %6, align 4
  br label %30

30:                                               ; preds = %29, %27, %21
  call void @llvm.lifetime.end.p0(i64 8, ptr %5) #3
  call void @llvm.lifetime.end.p0(i64 4, ptr %4) #3
  %31 = load i32, ptr %2, align 4
  ret i32 %31
}

; Function Attrs: nounwind uwtable
define dso_local i32 @nghttp2_bufs_addb(ptr noundef %0, i8 noundef zeroext %1) #0 {
  %3 = alloca i32, align 4
  %4 = alloca ptr, align 8
  %5 = alloca i8, align 1
  %6 = alloca i32, align 4
  %7 = alloca i32, align 4
  store ptr %0, ptr %4, align 8, !tbaa !4
  store i8 %1, ptr %5, align 1, !tbaa !46
  call void @llvm.lifetime.start.p0(i64 4, ptr %6) #3
  %8 = load ptr, ptr %4, align 8, !tbaa !4
  %9 = call i32 @bufs_ensure_addb(ptr noundef %8)
  store i32 %9, ptr %6, align 4, !tbaa !18
  %10 = load i32, ptr %6, align 4, !tbaa !18
  %11 = icmp ne i32 %10, 0
  br i1 %11, label %12, label %14

12:                                               ; preds = %2
  %13 = load i32, ptr %6, align 4, !tbaa !18
  store i32 %13, ptr %3, align 4
  store i32 1, ptr %7, align 4
  br label %23

14:                                               ; preds = %2
  %15 = load i8, ptr %5, align 1, !tbaa !46
  %16 = load ptr, ptr %4, align 8, !tbaa !4
  %17 = getelementptr inbounds nuw %struct.nghttp2_bufs, ptr %16, i32 0, i32 1
  %18 = load ptr, ptr %17, align 8, !tbaa !26
  %19 = getelementptr inbounds nuw %struct.nghttp2_buf_chain, ptr %18, i32 0, i32 1
  %20 = getelementptr inbounds nuw %struct.nghttp2_buf, ptr %19, i32 0, i32 3
  %21 = load ptr, ptr %20, align 8, !tbaa !29
  %22 = getelementptr inbounds nuw i8, ptr %21, i32 1
  store ptr %22, ptr %20, align 8, !tbaa !29
  store i8 %15, ptr %21, align 1, !tbaa !46
  store i32 0, ptr %3, align 4
  store i32 1, ptr %7, align 4
  br label %23

23:                                               ; preds = %14, %12
  call void @llvm.lifetime.end.p0(i64 4, ptr %6) #3
  %24 = load i32, ptr %3, align 4
  ret i32 %24
}